	.section .mdebug.abi32
	.previous
	.gnu_attribute 4, 3

 # -G value = 8, Arch = pic32mx, ISA = 33
 # GNU C (Microchip Technology) version 4.5.1 MPLAB C Compiler for PIC32 MCUs v2.02-20111116 (pic32mx)
 #	compiled by GNU C version 4.4.2, GMP version 4.3.2, MPFR version 2.4.2, MPC version 0.8.1
 # GGC heuristics: --param ggc-min-expand=100 --param ggc-min-heapsize=131072
 # options passed:  -fpreprocessed pic32_clock.i
 # -mconfig-data-dir=c:/program files (x86)/microchip/mplabc32/v2.02/bin/../lib/gcc/pic32mx/4.5.1/../../../../pic32mx/lib/./proc/32MX120F032B
 # -fverbose-asm -mprocessor=32MX120F032B -mips16 -mips32r2 -mabi=32
 # -auxbase-strip build/default/production/_ext/2083497967/pic32_clock.o -g
 # -ffunction-sections
 # options enabled:  -falign-loops -fargument-alias -fauto-inc-dec
 # -fbranch-count-reg -fcommon -fdelete-null-pointer-checks
 # -fdwarf2-cfi-asm -fearly-inlining -feliminate-unused-debug-types
 # -ffunction-cse -ffunction-sections -fgcse-lm -fident
 # -finline-functions-called-once -fira-share-save-slots
 # -fira-share-spill-slots -fivopts -fkeep-static-consts
 # -fleading-underscore -fmath-errno -fmerge-debug-strings
 # -fpcc-struct-return -fpeephole -fsched-critical-path-heuristic
 # -fsched-dep-count-heuristic -fsched-group-heuristic -fsched-interblock
 # -fsched-last-insn-heuristic -fsched-rank-heuristic -fsched-spec
 # -fsched-spec-insn-heuristic -fsched-stalled-insns-dep -fshow-column
 # -fsigned-zeros -fsplit-ivs-in-unroller -fstrict-volatile-bitfields
 # -ftrapping-math -ftree-cselim -ftree-forwprop -ftree-loop-im
 # -ftree-loop-ivcanon -ftree-loop-optimize -ftree-parallelize-loops=
 # -ftree-phiprop -ftree-pta -ftree-reassoc -ftree-scev-cprop
 # -ftree-slp-vectorize -ftree-vect-loop-version -funit-at-a-time
 # -fverbose-asm -fzero-initialized-in-bss -mbranch-likely
 # -mcheck-zero-division -mdivide-traps -mel -membedded-data
 # -mexplicit-relocs -mextern-sdata -mfused-madd -mgpopt -minterlink-mips16
 # -mips16 -mjals -mlocal-sdata -mlong32 -mshared -msoft-float
 # -msplit-addresses

	.section	.text,code
.Ltext0:
 # Compiler executable checksum: 5f79c4fe9aea52d9a14c610405612b0e

	.cfi_sections	.debug_frame
	.globl	globalCLK
	.section	.sdata,data
	.align	2
	.type	globalCLK, @object
	.size	globalCLK, 4
globalCLK:
	.word	40000000
	.globl	stdClockDivider
	.section	.rodata,code
	.align	2
	.type	stdClockDivider, @object
	.size	stdClockDivider, 16
stdClockDivider:
	.half	1
	.half	2
	.half	4
	.half	8
	.half	16
	.half	32
	.half	64
	.half	256
	.globl	stdClockMultiplier
	.align	2
	.type	stdClockMultiplier, @object
	.size	stdClockMultiplier, 8
stdClockMultiplier:
	.byte	15
	.byte	16
	.byte	17
	.byte	18
	.byte	19
	.byte	20
	.byte	21
	.byte	24
	.section	.text.clockSetFRC,code
	.align	2
	.globl	clockSetFRC
.LFB0 = .
	.file 1 "../../../../../Dev/PIClib/lib/peripheral/pic32_clock.c"
	.loc 1 56 0
	.cfi_startproc
	.set	mips16
	.set	nomicromips
	.ent	clockSetFRC
	.type	clockSetFRC, @function
clockSetFRC:
	.frame	$17,8,$31		# vars= 0, regs= 1/0, args= 0, gp= 0
	.mask	0x00020000,-4
	.fmask	0x00000000,0
# Begin mchp_output_function_prologue
# End mchp_output_function_prologue
	save	$4,8,$17
.LCFI0:
	.cfi_def_cfa_offset 8
	move	$17,$sp	 #,
	.cfi_offset 17, -4
	.cfi_offset 4, 0
.LCFI1:
	.cfi_def_cfa_register 17
	.loc 1 58 0
	move	$sp,$17	 #,
	restore	8,$17
	j	$31	 #
# Begin mchp_output_function_epilogue
# End mchp_output_function_epilogue
	.end	clockSetFRC
	.cfi_endproc
.LFE0:
	.size	clockSetFRC, .-clockSetFRC
	.section	.text.clockGetFRC,code
	.align	2
	.globl	clockGetFRC
.LFB1 = .
	.loc 1 68 0
	.cfi_startproc
	.set	mips16
	.set	nomicromips
	.ent	clockGetFRC
	.type	clockGetFRC, @function
clockGetFRC:
	.frame	$17,8,$31		# vars= 0, regs= 1/0, args= 0, gp= 0
	.mask	0x00020000,-4
	.fmask	0x00000000,0
# Begin mchp_output_function_prologue
# End mchp_output_function_prologue
	save	8,$17
.LCFI2:
	.cfi_def_cfa_offset 8
	move	$17,$sp	 #,
	.cfi_offset 17, -4
.LCFI3:
	.cfi_def_cfa_register 17
	.loc 1 69 0
	li	$2,0	 #,
	move	$24,$2	 # D.8434,
	move	$2,$24	 #, D.8434
	move	$24,$2	 # <retval>,
	.loc 1 70 0
	move	$2,$24	 #, <retval>
	move	$sp,$17	 #,
	restore	8,$17
	j	$31	 #
# Begin mchp_output_function_epilogue
# End mchp_output_function_epilogue
	.end	clockGetFRC
	.cfi_endproc
.LFE1:
	.size	clockGetFRC, .-clockGetFRC
	.section	.text.clockSetSource,code
	.align	2
	.globl	clockSetSource
.LFB2 = .
	.loc 1 81 0
	.cfi_startproc
	.set	mips16
	.set	nomicromips
	.ent	clockSetSource
	.type	clockSetSource, @function
clockSetSource:
	.frame	$17,8,$31		# vars= 0, regs= 1/0, args= 0, gp= 0
	.mask	0x00020000,-4
	.fmask	0x00000000,0
# Begin mchp_output_function_prologue
# End mchp_output_function_prologue
	save	$4,8,$17
.LCFI4:
	.cfi_def_cfa_offset 8
	move	$17,$sp	 #,
	.cfi_offset 17, -4
	.cfi_offset 4, 0
.LCFI5:
	.cfi_def_cfa_register 17
	.loc 1 83 0
	move	$sp,$17	 #,
	restore	8,$17
	j	$31	 #
# Begin mchp_output_function_epilogue
# End mchp_output_function_epilogue
	.end	clockSetSource
	.cfi_endproc
.LFE2:
	.size	clockSetSource, .-clockSetSource
	.section	.text.clockGetSource,code
	.align	2
	.globl	clockGetSource
.LFB3 = .
	.loc 1 93 0
	.cfi_startproc
	.set	mips16
	.set	nomicromips
	.ent	clockGetSource
	.type	clockGetSource, @function
clockGetSource:
	.frame	$17,8,$31		# vars= 0, regs= 1/0, args= 0, gp= 0
	.mask	0x00020000,-4
	.fmask	0x00000000,0
# Begin mchp_output_function_prologue
# End mchp_output_function_prologue
	save	8,$17
.LCFI6:
	.cfi_def_cfa_offset 8
	move	$17,$sp	 #,
	.cfi_offset 17, -4
.LCFI7:
	.cfi_def_cfa_register 17
	.loc 1 94 0
	li	$2,0	 #,
	move	$24,$2	 # D.8432,
	move	$2,$24	 #, D.8432
	move	$24,$2	 # <retval>,
	.loc 1 95 0
	move	$2,$24	 #, <retval>
	move	$sp,$17	 #,
	restore	8,$17
	j	$31	 #
# Begin mchp_output_function_epilogue
# End mchp_output_function_epilogue
	.end	clockGetSource
	.cfi_endproc
.LFE3:
	.size	clockGetSource, .-clockGetSource
	.section	.text.clockSetPBCLK,code
	.align	2
	.globl	clockSetPBCLK
.LFB4 = .
	.loc 1 107 0
	.cfi_startproc
	.set	mips16
	.set	nomicromips
	.ent	clockSetPBCLK
	.type	clockSetPBCLK, @function
clockSetPBCLK:
	.frame	$17,8,$31		# vars= 0, regs= 1/0, args= 0, gp= 0
	.mask	0x00020000,-4
	.fmask	0x00000000,0
# Begin mchp_output_function_prologue
# End mchp_output_function_prologue
	save	$4,8,$17
.LCFI8:
	.cfi_def_cfa_offset 8
	move	$17,$sp	 #,
	.cfi_offset 17, -4
	.cfi_offset 4, 0
.LCFI9:
	.cfi_def_cfa_register 17
	.loc 1 109 0
	move	$sp,$17	 #,
	restore	8,$17
	j	$31	 #
# Begin mchp_output_function_epilogue
# End mchp_output_function_epilogue
	.end	clockSetPBCLK
	.cfi_endproc
.LFE4:
	.size	clockSetPBCLK, .-clockSetPBCLK
	.section	.text.clockGetPBCLK,code
	.align	2
	.globl	clockGetPBCLK
.LFB5 = .
	.loc 1 119 0
	.cfi_startproc
	.set	mips16
	.set	nomicromips
	.ent	clockGetPBCLK
	.type	clockGetPBCLK, @function
clockGetPBCLK:
	.frame	$17,8,$31		# vars= 0, regs= 1/0, args= 0, gp= 0
	.mask	0x00020000,-4
	.fmask	0x00000000,0
# Begin mchp_output_function_prologue
# End mchp_output_function_prologue
	save	8,$17
.LCFI10:
	.cfi_def_cfa_offset 8
	move	$17,$sp	 #,
	.cfi_offset 17, -4
.LCFI11:
	.cfi_def_cfa_register 17
	.loc 1 120 0
	move	$2,$28	 #,
	move	$24,$2	 # tmp225,
	move	$4,$24	 #, tmp225
	lw	$3,%gprel(globalCLK)($4)	 # globalCLK.0, globalCLK
	lw	$2,.L7	 #,
	move	$24,$2	 # tmp226,
	move	$4,$24	 #, tmp226
	lw	$4,0($4)	 #,
	move	$24,$4	 # tmp228,
	move	$2,$24	 #, tmp228
	srl	$2,$2,19	 #,,
	move	$24,$2	 # tmp227,
	move	$2,$24	 # tmp229, tmp227
	li	$4,3	 #,
	move	$24,$4	 # tmp231,
	move	$4,$24	 #, tmp231
	and	$4,$2	 #, tmp229
	move	$24,$4	 # tmp230,
	move	$2,$24	 #,
	zeb	$2	 #
	move	$24,$2	 # D.8427,
	move	$4,$24	 #, D.8427
	move	$24,$4	 # D.8428,
	lw	$2,.L8	 # tmp232,
	move	$4,$24	 #, D.8428
	sll	$4,$4,1	 #,,
	move	$24,$4	 # tmp233,
	move	$4,$24	 #, tmp233
	addu	$4,$2,$4	 #, tmp232,
	move	$24,$4	 # tmp234,
	move	$2,$24	 #, tmp234
	lhu	$2,0($2)	 #, stdClockDivider
	move	$24,$2	 # D.8429,
	move	$4,$24	 #, D.8429
	move	$24,$4	 # D.8430,
	move	$4,$24	 #, D.8430
	divu	$0,$3,$4	 # globalCLK.0,
	bnez	$4,1f	 #
	break	7
1:
	mfhi	$2	 # tmp236
	mflo	$4	 #
	move	$24,$4	 # tmp235,
	move	$2,$24	 #, tmp235
	move	$24,$2	 # D.8425,
	move	$4,$24	 #, D.8425
	move	$24,$4	 # <retval>,
	.loc 1 121 0
	move	$2,$24	 #, <retval>
	move	$sp,$17	 #,
	restore	8,$17
	j	$31	 #
	.align	2	 #
.L7:
	.word	OSCCON
.L8:
	.word	stdClockDivider
# Begin mchp_output_function_epilogue
# End mchp_output_function_epilogue
	.end	clockGetPBCLK
	.cfi_endproc
.LFE5:
	.size	clockGetPBCLK, .-clockGetPBCLK
	.section	.text.clockSetPLL,code
	.align	2
	.globl	clockSetPLL
.LFB6 = .
	.loc 1 125 0
	.cfi_startproc
	.set	mips16
	.set	nomicromips
	.ent	clockSetPLL
	.type	clockSetPLL, @function
clockSetPLL:
	.frame	$17,8,$31		# vars= 0, regs= 1/0, args= 0, gp= 0
	.mask	0x00020000,-4
	.fmask	0x00000000,0
# Begin mchp_output_function_prologue
# End mchp_output_function_prologue
	save	8,$17
.LCFI12:
	.cfi_def_cfa_offset 8
	move	$17,$sp	 #,
	.cfi_offset 17, -4
.LCFI13:
	.cfi_def_cfa_register 17
	move	$24,$4	 # tmp218, ratio
	move	$2,$24	 #,
	sb	$2,8($17)	 #, ratio
	.loc 1 127 0
	move	$sp,$17	 #,
	restore	8,$17
	j	$31	 #
# Begin mchp_output_function_epilogue
# End mchp_output_function_epilogue
	.end	clockSetPLL
	.cfi_endproc
.LFE6:
	.size	clockSetPLL, .-clockSetPLL
	.section	.text.clockGetPLL,code
	.align	2
	.globl	clockGetPLL
.LFB7 = .
	.loc 1 130 0
	.cfi_startproc
	.set	mips16
	.set	nomicromips
	.ent	clockGetPLL
	.type	clockGetPLL, @function
clockGetPLL:
	.frame	$17,8,$31		# vars= 0, regs= 1/0, args= 0, gp= 0
	.mask	0x00020000,-4
	.fmask	0x00000000,0
# Begin mchp_output_function_prologue
# End mchp_output_function_prologue
	save	8,$17
.LCFI14:
	.cfi_def_cfa_offset 8
	move	$17,$sp	 #,
	.cfi_offset 17, -4
.LCFI15:
	.cfi_def_cfa_register 17
	.loc 1 131 0
	li	$2,0	 #,
	move	$24,$2	 # D.8423,
	move	$2,$24	 #, D.8423
	move	$24,$2	 # <retval>,
	.loc 1 132 0
	move	$2,$24	 #, <retval>
	move	$sp,$17	 #,
	restore	8,$17
	j	$31	 #
# Begin mchp_output_function_epilogue
# End mchp_output_function_epilogue
	.end	clockGetPLL
	.cfi_endproc
.LFE7:
	.size	clockGetPLL, .-clockGetPLL
	.section	.text.clockSetUSBPLL,code
	.align	2
	.globl	clockSetUSBPLL
.LFB8 = .
	.loc 1 136 0
	.cfi_startproc
	.set	mips16
	.set	nomicromips
	.ent	clockSetUSBPLL
	.type	clockSetUSBPLL, @function
clockSetUSBPLL:
	.frame	$17,8,$31		# vars= 0, regs= 1/0, args= 0, gp= 0
	.mask	0x00020000,-4
	.fmask	0x00000000,0
# Begin mchp_output_function_prologue
# End mchp_output_function_prologue
	save	8,$17
.LCFI16:
	.cfi_def_cfa_offset 8
	move	$17,$sp	 #,
	.cfi_offset 17, -4
.LCFI17:
	.cfi_def_cfa_register 17
	move	$24,$4	 # tmp218, option
	move	$2,$24	 #,
	sb	$2,8($17)	 #, option
	.loc 1 138 0
	move	$sp,$17	 #,
	restore	8,$17
	j	$31	 #
# Begin mchp_output_function_epilogue
# End mchp_output_function_epilogue
	.end	clockSetUSBPLL
	.cfi_endproc
.LFE8:
	.size	clockSetUSBPLL, .-clockSetUSBPLL
	.section	.text.clockGetUSBPLL,code
	.align	2
	.globl	clockGetUSBPLL
.LFB9 = .
	.loc 1 141 0
	.cfi_startproc
	.set	mips16
	.set	nomicromips
	.ent	clockGetUSBPLL
	.type	clockGetUSBPLL, @function
clockGetUSBPLL:
	.frame	$17,8,$31		# vars= 0, regs= 1/0, args= 0, gp= 0
	.mask	0x00020000,-4
	.fmask	0x00000000,0
# Begin mchp_output_function_prologue
# End mchp_output_function_prologue
	save	8,$17
.LCFI18:
	.cfi_def_cfa_offset 8
	move	$17,$sp	 #,
	.cfi_offset 17, -4
.LCFI19:
	.cfi_def_cfa_register 17
	.loc 1 142 0
	li	$2,0	 #,
	move	$24,$2	 # D.8421,
	move	$2,$24	 #, D.8421
	move	$24,$2	 # <retval>,
	.loc 1 143 0
	move	$2,$24	 #, <retval>
	move	$sp,$17	 #,
	restore	8,$17
	j	$31	 #
# Begin mchp_output_function_epilogue
# End mchp_output_function_epilogue
	.end	clockGetUSBPLL
	.cfi_endproc
.LFE9:
	.size	clockGetUSBPLL, .-clockGetUSBPLL
	.section	.text.clockSetREFCLKO,code
	.align	2
	.globl	clockSetREFCLKO
.LFB10 = .
	.loc 1 147 0
	.cfi_startproc
	.set	mips16
	.set	nomicromips
	.ent	clockSetREFCLKO
	.type	clockSetREFCLKO, @function
clockSetREFCLKO:
	.frame	$17,8,$31		# vars= 0, regs= 1/0, args= 0, gp= 0
	.mask	0x00020000,-4
	.fmask	0x00000000,0
# Begin mchp_output_function_prologue
# End mchp_output_function_prologue
	save	$4,8,$17
.LCFI20:
	.cfi_def_cfa_offset 8
	move	$17,$sp	 #,
	.cfi_offset 17, -4
	.cfi_offset 4, 0
.LCFI21:
	.cfi_def_cfa_register 17
	.loc 1 149 0
	move	$sp,$17	 #,
	restore	8,$17
	j	$31	 #
# Begin mchp_output_function_epilogue
# End mchp_output_function_epilogue
	.end	clockSetREFCLKO
	.cfi_endproc
.LFE10:
	.size	clockSetREFCLKO, .-clockSetREFCLKO
	.section	.text.clockGetREFCLKO,code
	.align	2
	.globl	clockGetREFCLKO
.LFB11 = .
	.loc 1 152 0
	.cfi_startproc
	.set	mips16
	.set	nomicromips
	.ent	clockGetREFCLKO
	.type	clockGetREFCLKO, @function
clockGetREFCLKO:
	.frame	$17,8,$31		# vars= 0, regs= 1/0, args= 0, gp= 0
	.mask	0x00020000,-4
	.fmask	0x00000000,0
# Begin mchp_output_function_prologue
# End mchp_output_function_prologue
	save	8,$17
.LCFI22:
	.cfi_def_cfa_offset 8
	move	$17,$sp	 #,
	.cfi_offset 17, -4
.LCFI23:
	.cfi_def_cfa_register 17
	.loc 1 153 0
	li	$2,0	 #,
	move	$24,$2	 # D.8419,
	move	$2,$24	 #, D.8419
	move	$24,$2	 # <retval>,
	.loc 1 154 0
	move	$2,$24	 #, <retval>
	move	$sp,$17	 #,
	restore	8,$17
	j	$31	 #
# Begin mchp_output_function_epilogue
# End mchp_output_function_epilogue
	.end	clockGetREFCLKO
	.cfi_endproc
.LFE11:
	.size	clockGetREFCLKO, .-clockGetREFCLKO
	.section	.text.clockSetSYSCLK,code
	.align	2
	.globl	clockSetSYSCLK
.LFB12 = .
	.loc 1 169 0
	.cfi_startproc
	.set	mips16
	.set	nomicromips
	.ent	clockSetSYSCLK
	.type	clockSetSYSCLK, @function
clockSetSYSCLK:
	.frame	$17,8,$31		# vars= 0, regs= 1/0, args= 0, gp= 0
	.mask	0x00020000,-4
	.fmask	0x00000000,0
# Begin mchp_output_function_prologue
# End mchp_output_function_prologue
	save	$4,8,$17
.LCFI24:
	.cfi_def_cfa_offset 8
	move	$17,$sp	 #,
	.cfi_offset 17, -4
	.cfi_offset 4, 0
.LCFI25:
	.cfi_def_cfa_register 17
	.loc 1 171 0
	move	$sp,$17	 #,
	restore	8,$17
	j	$31	 #
# Begin mchp_output_function_epilogue
# End mchp_output_function_epilogue
	.end	clockSetSYSCLK
	.cfi_endproc
.LFE12:
	.size	clockSetSYSCLK, .-clockSetSYSCLK
	.section	.text.clockGetSYSCLK,code
	.align	2
	.globl	clockGetSYSCLK
.LFB13 = .
	.loc 1 181 0
	.cfi_startproc
	.set	mips16
	.set	nomicromips
	.ent	clockGetSYSCLK
	.type	clockGetSYSCLK, @function
clockGetSYSCLK:
	.frame	$17,8,$31		# vars= 0, regs= 1/0, args= 0, gp= 0
	.mask	0x00020000,-4
	.fmask	0x00000000,0
# Begin mchp_output_function_prologue
# End mchp_output_function_prologue
	save	8,$17
.LCFI26:
	.cfi_def_cfa_offset 8
	move	$17,$sp	 #,
	.cfi_offset 17, -4
.LCFI27:
	.cfi_def_cfa_register 17
	.loc 1 182 0
	li	$2,0	 #,
	move	$24,$2	 # D.8417,
	move	$2,$24	 #, D.8417
	move	$24,$2	 # <retval>,
	.loc 1 183 0
	move	$2,$24	 #, <retval>
	move	$sp,$17	 #,
	restore	8,$17
	j	$31	 #
# Begin mchp_output_function_epilogue
# End mchp_output_function_epilogue
	.end	clockGetSYSCLK
	.cfi_endproc
.LFE13:
	.size	clockGetSYSCLK, .-clockGetSYSCLK
	.section	.text,code
.Letext0:
	.file 2 "c:/program files (x86)/microchip/mplabc32/v2.02/bin/../lib/gcc/pic32mx/4.5.1/../../../../pic32mx/include/proc/p32mx120f032b.h"
	.file 3 "E:/Dropbox/Electro/Dev/PIClib/header/definition/datatype_megaxone.h"
	.file 4 "../../../../../Dev/PIClib/lib/peripheral/pic32_clock.h"
	.section	.text,code
	.ident	"GCC: (Microchip Technology) 4.5.1 MPLAB C Compiler for PIC32 MCUs v2.02-20111116"
# Begin MCHP vector dispatch table
# End MCHP vector dispatch table
# MCHP configuration words
